target datalayout = "e-m:e-p270:32:32-p271:32:32-p272:64:64-i64:64-i128:128-f80:128-n8:16:32:64-S128"
target triple = "x86_64-pc-linux-gnu"

; Function Attrs: nounwind uwtable
define internal ptr @Copy_Enum_Type(ptr noundef %0) #0 {
  %2 = alloca ptr, align 8
  %3 = alloca ptr, align 8
  %4 = alloca ptr, align 8
  store ptr %0, ptr %2, align 8, !tbaa !9
  call void @llvm.lifetime.start.p0(i64 8, ptr %3) #7
  store ptr null, ptr %3, align 8, !tbaa !9
  %5 = load ptr, ptr %2, align 8, !tbaa !9
  %6 = icmp ne ptr %5, null
  br i1 %6, label %7, label %16

7:                                                ; preds = %1
  call void @llvm.lifetime.start.p0(i64 8, ptr %4) #7
  %8 = load ptr, ptr %2, align 8, !tbaa !9
  store ptr %8, ptr %4, align 8, !tbaa !9
  %9 = call noalias ptr @malloc(i64 noundef 16) #8
  store ptr %9, ptr %3, align 8, !tbaa !9
  %10 = load ptr, ptr %3, align 8, !tbaa !9
  %11 = icmp ne ptr %10, null
  br i1 %11, label %12, label %15

12:                                               ; preds = %7
  %13 = load ptr, ptr %3, align 8, !tbaa !9
  %14 = load ptr, ptr %4, align 8, !tbaa !9
  call void @llvm.memcpy.p0.p0.i64(ptr align 8 %13, ptr align 8 %14, i64 16, i1 false), !tbaa.struct !24
  br label %15

15:                                               ; preds = %12, %7
  call void @llvm.lifetime.end.p0(i64 8, ptr %4) #7
  br label %16

16:                                               ; preds = %15, %1
  %17 = load ptr, ptr %3, align 8, !tbaa !9
  call void @llvm.lifetime.end.p0(i64 8, ptr %3) #7
  ret ptr %17
}