; Function Attrs: mustprogress nofree nounwind willreturn uwtable
define internal noalias noundef ptr @Copy_Enum_Type(ptr noundef readonly %0) #1 {
  %.not = icmp eq ptr %0, null
  br i1 %.not, label %5, label %2

2:                                                ; preds = %1
  %3 = tail call noalias dereferenceable_or_null(16) ptr @malloc(i64 noundef 16) #9
  %.not8 = icmp eq ptr %3, null
  br i1 %.not8, label %5, label %4

4:                                                ; preds = %2
  tail call void @llvm.memcpy.p0.p0.i64(ptr noundef nonnull align 8 dereferenceable(16) %3, ptr noundef nonnull align 8 dereferenceable(16) %0, i64 16, i1 false), !tbaa.struct !19
  br label %5

5:                                                ; preds = %2, %4, %1
  %.0 = phi ptr [ null, %1 ], [ %3, %4 ], [ null, %2 ]
  ret ptr %.0
}